; Function Attrs: nounwind uwtable
define void @Gia_ManCountTents_rec(ptr noundef readonly captures(none) %0, i32 noundef %1, ptr noundef captures(none) %2) local_unnamed_addr #0 {
  %4 = getelementptr i8, ptr %0, i64 176
  %5 = getelementptr i8, ptr %0, i64 616
  %.val46 = load i32, ptr %4, align 8
  %.val2447 = load ptr, ptr %5, align 8
  %6 = sext i32 %1 to i64
  %7 = getelementptr inbounds i32, ptr %.val2447, i64 %6
  %8 = load i32, ptr %7, align 4
  %.not48 = icmp eq i32 %8, %.val46
  br i1 %.not48, label %Gia_ObjIsPi.exit, label %.lr.ph

.lr.ph:                                           ; preds = %3
  %9 = getelementptr i8, ptr %0, i64 32
  br label %10

10:                                               ; preds = %.lr.ph, %tailrecurse
  %11 = phi ptr [ %7, %.lr.ph ], [ %25, %tailrecurse ]
  %12 = phi i64 [ %6, %.lr.ph ], [ %24, %tailrecurse ]
  %.val50 = phi i32 [ %.val46, %.lr.ph ], [ %.val, %tailrecurse ]
  %.tr4449 = phi i32 [ %1, %.lr.ph ], [ %23, %tailrecurse ]
  store i32 %.val50, ptr %11, align 4
  %.val27 = load ptr, ptr %9, align 8
  %13 = getelementptr inbounds %struct.Gia_Obj_t_, ptr %.val27, i64 %12
  %.val31 = load i64, ptr %13, align 4
  %14 = and i64 %.val31, 2147483648
  %.not.i = icmp ne i64 %14, 0
  %15 = and i64 %.val31, 536870911
  %16 = icmp eq i64 %15, 536870911
  %narrow.i.not = or i1 %.not.i, %16
  br i1 %narrow.i.not, label %27, label %tailrecurse

tailrecurse:                                      ; preds = %10
  %17 = trunc i64 %.val31 to i32
  %18 = and i32 %17, 536870911
  %19 = sub nsw i32 %.tr4449, %18
  tail call void @Gia_ManCountTents_rec(ptr noundef nonnull %0, i32 noundef %19, ptr noundef %2)
  %.val30 = load i64, ptr %13, align 4
  %20 = lshr i64 %.val30, 32
  %21 = trunc nuw i64 %20 to i32
  %22 = and i32 %21, 536870911
  %23 = sub nsw i32 %.tr4449, %22
  %.val = load i32, ptr %4, align 8
  %.val24 = load ptr, ptr %5, align 8
  %24 = sext i32 %23 to i64
  %25 = getelementptr inbounds i32, ptr %.val24, i64 %24
  %26 = load i32, ptr %25, align 4
  %.not = icmp eq i32 %26, %.val
  br i1 %.not, label %Gia_ObjIsPi.exit, label %10

27:                                               ; preds = %10
  %28 = and i64 %.val31, 2684354559
  %narrow.i.not.i = icmp eq i64 %28, 2684354559
  br i1 %narrow.i.not.i, label %Gia_ObjIsRo.exit, label %Gia_ObjIsPi.exit

Gia_ObjIsRo.exit:                                 ; preds = %27
  %29 = lshr i64 %.val31, 32
  %30 = trunc nuw i64 %29 to i32
  %31 = and i32 %30, 536870911
  %32 = getelementptr i8, ptr %0, i64 16
  %.val4.i = load i32, ptr %32, align 8
  %33 = getelementptr i8, ptr %0, i64 64
  %.val5.i = load ptr, ptr %33, align 8
  %34 = getelementptr i8, ptr %.val5.i, i64 4
  %.val5.val.i = load i32, ptr %34, align 4
  %35 = sub nsw i32 %.val5.val.i, %.val4.i
  %.not43 = icmp slt i32 %31, %35
  br i1 %.not43, label %Gia_ObjIsPi.exit, label %36

36:                                               ; preds = %Gia_ObjIsRo.exit
  %37 = getelementptr i8, ptr %0, i64 72
  %.val6.i = load ptr, ptr %37, align 8
  %38 = getelementptr i8, ptr %.val6.i, i64 4
  %.val6.val.i = load i32, ptr %38, align 4
  %39 = add i32 %.val6.val.i, %31
  %40 = sub i32 %39, %.val5.val.i
  %41 = getelementptr i8, ptr %.val6.i, i64 8
  %.val5.val.i36 = load ptr, ptr %41, align 8
  %42 = sext i32 %40 to i64
  %43 = getelementptr inbounds i32, ptr %.val5.val.i36, i64 %42
  %44 = load i32, ptr %43, align 4
  %45 = sext i32 %44 to i64
  %46 = getelementptr inbounds %struct.Gia_Obj_t_, ptr %.val27, i64 %45
  %.val.i = load i64, ptr %46, align 4
  %47 = trunc i64 %.val.i to i32
  %48 = and i32 %47, 536870911
  %49 = sub nsw i32 %44, %48
  %50 = getelementptr inbounds nuw i8, ptr %2, i64 4
  %51 = load i32, ptr %50, align 4
  %52 = load i32, ptr %2, align 8
  %53 = icmp eq i32 %51, %52
  br i1 %53, label %54, label %.Vec_IntGrow.exit10_crit_edge.i

.Vec_IntGrow.exit10_crit_edge.i:                  ; preds = %36
  %.phi.trans.insert.i = getelementptr inbounds nuw i8, ptr %2, i64 8
  %.pre.i = load ptr, ptr %.phi.trans.insert.i, align 8
  br label %Vec_IntPush.exit

54:                                               ; preds = %36
  %55 = icmp slt i32 %51, 16
  br i1 %55, label %56, label %64

56:                                               ; preds = %54
  %57 = getelementptr inbounds nuw i8, ptr %2, i64 8
  %58 = load ptr, ptr %57, align 8
  %.not9.i.i = icmp eq ptr %58, null
  br i1 %.not9.i.i, label %61, label %59

59:                                               ; preds = %56
  %60 = tail call dereferenceable_or_null(64) ptr @realloc(ptr noundef nonnull %58, i64 noundef 64) #21
  br label %Vec_IntGrow.exit.i

61:                                               ; preds = %56
  %62 = tail call noalias dereferenceable_or_null(64) ptr @malloc(i64 noundef 64) #22
  br label %Vec_IntGrow.exit.i

Vec_IntGrow.exit.i:                               ; preds = %61, %59
  %63 = phi ptr [ %60, %59 ], [ %62, %61 ]
  store ptr %63, ptr %57, align 8
  store i32 16, ptr %2, align 8
  br label %Vec_IntPush.exit

64:                                               ; preds = %54
  %65 = shl nuw nsw i32 %51, 1
  %66 = getelementptr inbounds nuw i8, ptr %2, i64 8
  %67 = load ptr, ptr %66, align 8
  %.not9.i9.i = icmp eq ptr %67, null
  %68 = zext nneg i32 %65 to i64
  %69 = shl nuw nsw i64 %68, 2
  br i1 %.not9.i9.i, label %72, label %70

70:                                               ; preds = %64
  %71 = tail call ptr @realloc(ptr noundef nonnull %67, i64 noundef %69) #21
  br label %74

72:                                               ; preds = %64
  %73 = tail call noalias ptr @malloc(i64 noundef %69) #22
  br label %74

74:                                               ; preds = %72, %70
  %75 = phi ptr [ %71, %70 ], [ %73, %72 ]
  store ptr %75, ptr %66, align 8
  store i32 %65, ptr %2, align 8
  br label %Vec_IntPush.exit

Vec_IntPush.exit:                                 ; preds = %.Vec_IntGrow.exit10_crit_edge.i, %Vec_IntGrow.exit.i, %74
  %76 = phi ptr [ %.pre.i, %.Vec_IntGrow.exit10_crit_edge.i ], [ %75, %74 ], [ %63, %Vec_IntGrow.exit.i ]
  %77 = load i32, ptr %50, align 4
  %78 = add nsw i32 %77, 1
  store i32 %78, ptr %50, align 4
  %79 = sext i32 %77 to i64
  %80 = getelementptr inbounds i32, ptr %76, i64 %79
  store i32 %49, ptr %80, align 4
  br label %Gia_ObjIsPi.exit

Gia_ObjIsPi.exit:                                 ; preds = %tailrecurse, %3, %Gia_ObjIsRo.exit, %27, %Vec_IntPush.exit
  ret void
}